target datalayout = "e-m:e-p270:32:32-p271:32:32-p272:64:64-i64:64-i128:128-f80:128-n8:16:32:64-S128"
target triple = "x86_64-pc-linux-gnu"

%struct.MvcCubeStruct = type { ptr, i32, i32, [1 x i32] }

; Function Attrs: nounwind uwtable
define i32 @Mvc_CubeCompareInt(ptr noundef %0, ptr noundef %1, ptr noundef %2) #0 {
  %4 = alloca i32, align 4
  %5 = alloca ptr, align 8
  %6 = alloca ptr, align 8
  %7 = alloca ptr, align 8
  %8 = alloca i32, align 4
  %9 = alloca i32, align 4
  store ptr %0, ptr %5, align 8, !tbaa !3
  store ptr %1, ptr %6, align 8, !tbaa !3
  store ptr %2, ptr %7, align 8, !tbaa !3
  %10 = load ptr, ptr %5, align 8, !tbaa !3
  %11 = getelementptr inbounds nuw %struct.MvcCubeStruct, ptr %10, i32 0, i32 1
  %12 = load i32, ptr %11, align 8
  %13 = and i32 %12, 16777215
  %14 = icmp eq i32 %13, 0
  br i1 %14, label %15, label %38

15:                                               ; preds = %3
  %16 = load ptr, ptr %5, align 8, !tbaa !3
  %17 = getelementptr inbounds nuw %struct.MvcCubeStruct, ptr %16, i32 0, i32 3
  %18 = getelementptr inbounds [1 x i32], ptr %17, i64 0, i64 0
  %19 = load i32, ptr %18, align 8, !tbaa !8
  %20 = load ptr, ptr %6, align 8, !tbaa !3
  %21 = getelementptr inbounds nuw %struct.MvcCubeStruct, ptr %20, i32 0, i32 3
  %22 = getelementptr inbounds [1 x i32], ptr %21, i64 0, i64 0
  %23 = load i32, ptr %22, align 8, !tbaa !8
  %24 = icmp ult i32 %19, %23
  br i1 %24, label %25, label %26

25:                                               ; preds = %15
  store i32 -1, ptr %4, align 4
  br label %133

26:                                               ; preds = %15
  %27 = load ptr, ptr %5, align 8, !tbaa !3
  %28 = getelementptr inbounds nuw %struct.MvcCubeStruct, ptr %27, i32 0, i32 3
  %29 = getelementptr inbounds [1 x i32], ptr %28, i64 0, i64 0
  %30 = load i32, ptr %29, align 8, !tbaa !8
  %31 = load ptr, ptr %6, align 8, !tbaa !3
  %32 = getelementptr inbounds nuw %struct.MvcCubeStruct, ptr %31, i32 0, i32 3
  %33 = getelementptr inbounds [1 x i32], ptr %32, i64 0, i64 0
  %34 = load i32, ptr %33, align 8, !tbaa !8
  %35 = icmp ugt i32 %30, %34
  br i1 %35, label %36, label %37

36:                                               ; preds = %26
  store i32 1, ptr %4, align 4
  br label %133

37:                                               ; preds = %26
  store i32 0, ptr %4, align 4
  br label %133

38:                                               ; preds = %3
  %39 = load ptr, ptr %5, align 8, !tbaa !3
  %40 = getelementptr inbounds nuw %struct.MvcCubeStruct, ptr %39, i32 0, i32 1
  %41 = load i32, ptr %40, align 8
  %42 = and i32 %41, 16777215
  %43 = icmp eq i32 %42, 1
  br i1 %43, label %44, label %89

44:                                               ; preds = %38
  %45 = load ptr, ptr %5, align 8, !tbaa !3
  %46 = getelementptr inbounds nuw %struct.MvcCubeStruct, ptr %45, i32 0, i32 3
  %47 = getelementptr inbounds [1 x i32], ptr %46, i64 0, i64 1
  %48 = load i32, ptr %47, align 4, !tbaa !8
  %49 = load ptr, ptr %6, align 8, !tbaa !3
  %50 = getelementptr inbounds nuw %struct.MvcCubeStruct, ptr %49, i32 0, i32 3
  %51 = getelementptr inbounds [1 x i32], ptr %50, i64 0, i64 1
  %52 = load i32, ptr %51, align 4, !tbaa !8
  %53 = icmp ult i32 %48, %52
  br i1 %53, label %54, label %55

54:                                               ; preds = %44
  store i32 -1, ptr %4, align 4
  br label %133

55:                                               ; preds = %44
  %56 = load ptr, ptr %5, align 8, !tbaa !3
  %57 = getelementptr inbounds nuw %struct.MvcCubeStruct, ptr %56, i32 0, i32 3
  %58 = getelementptr inbounds [1 x i32], ptr %57, i64 0, i64 1
  %59 = load i32, ptr %58, align 4, !tbaa !8
  %60 = load ptr, ptr %6, align 8, !tbaa !3
  %61 = getelementptr inbounds nuw %struct.MvcCubeStruct, ptr %60, i32 0, i32 3
  %62 = getelementptr inbounds [1 x i32], ptr %61, i64 0, i64 1
  %63 = load i32, ptr %62, align 4, !tbaa !8
  %64 = icmp ugt i32 %59, %63
  br i1 %64, label %65, label %66

65:                                               ; preds = %55
  store i32 1, ptr %4, align 4
  br label %133

66:                                               ; preds = %55
  %67 = load ptr, ptr %5, align 8, !tbaa !3
  %68 = getelementptr inbounds nuw %struct.MvcCubeStruct, ptr %67, i32 0, i32 3
  %69 = getelementptr inbounds [1 x i32], ptr %68, i64 0, i64 0
  %70 = load i32, ptr %69, align 8, !tbaa !8
  %71 = load ptr, ptr %6, align 8, !tbaa !3
  %72 = getelementptr inbounds nuw %struct.MvcCubeStruct, ptr %71, i32 0, i32 3
  %73 = getelementptr inbounds [1 x i32], ptr %72, i64 0, i64 0
  %74 = load i32, ptr %73, align 8, !tbaa !8
  %75 = icmp ult i32 %70, %74
  br i1 %75, label %76, label %77

76:                                               ; preds = %66
  store i32 -1, ptr %4, align 4
  br label %133

77:                                               ; preds = %66
  %78 = load ptr, ptr %5, align 8, !tbaa !3
  %79 = getelementptr inbounds nuw %struct.MvcCubeStruct, ptr %78, i32 0, i32 3
  %80 = getelementptr inbounds [1 x i32], ptr %79, i64 0, i64 0
  %81 = load i32, ptr %80, align 8, !tbaa !8
  %82 = load ptr, ptr %6, align 8, !tbaa !3
  %83 = getelementptr inbounds nuw %struct.MvcCubeStruct, ptr %82, i32 0, i32 3
  %84 = getelementptr inbounds [1 x i32], ptr %83, i64 0, i64 0
  %85 = load i32, ptr %84, align 8, !tbaa !8
  %86 = icmp ugt i32 %81, %85
  br i1 %86, label %87, label %88

87:                                               ; preds = %77
  store i32 1, ptr %4, align 4
  br label %133

88:                                               ; preds = %77
  store i32 0, ptr %4, align 4
  br label %133

89:                                               ; preds = %38
  call void @llvm.lifetime.start.p0(i64 4, ptr %8) #2
  %90 = load ptr, ptr %5, align 8, !tbaa !3
  %91 = getelementptr inbounds nuw %struct.MvcCubeStruct, ptr %90, i32 0, i32 1
  %92 = load i32, ptr %91, align 8
  %93 = and i32 %92, 16777215
  store i32 %93, ptr %8, align 4, !tbaa !8
  br label %94

94:                                               ; preds = %128, %89
  %95 = load i32, ptr %8, align 4, !tbaa !8
  %96 = icmp sge i32 %95, 0
  br i1 %96, label %97, label %131

97:                                               ; preds = %94
  %98 = load ptr, ptr %5, align 8, !tbaa !3
  %99 = getelementptr inbounds nuw %struct.MvcCubeStruct, ptr %98, i32 0, i32 3
  %100 = load i32, ptr %8, align 4, !tbaa !8
  %101 = sext i32 %100 to i64
  %102 = getelementptr inbounds [1 x i32], ptr %99, i64 0, i64 %101
  %103 = load i32, ptr %102, align 4, !tbaa !8
  %104 = load ptr, ptr %6, align 8, !tbaa !3
  %105 = getelementptr inbounds nuw %struct.MvcCubeStruct, ptr %104, i32 0, i32 3
  %106 = load i32, ptr %8, align 4, !tbaa !8
  %107 = sext i32 %106 to i64
  %108 = getelementptr inbounds [1 x i32], ptr %105, i64 0, i64 %107
  %109 = load i32, ptr %108, align 4, !tbaa !8
  %110 = icmp ult i32 %103, %109
  br i1 %110, label %111, label %112

111:                                              ; preds = %97
  store i32 -1, ptr %4, align 4
  store i32 1, ptr %9, align 4
  br label %132

112:                                              ; preds = %97
  %113 = load ptr, ptr %5, align 8, !tbaa !3
  %114 = getelementptr inbounds nuw %struct.MvcCubeStruct, ptr %113, i32 0, i32 3
  %115 = load i32, ptr %8, align 4, !tbaa !8
  %116 = sext i32 %115 to i64
  %117 = getelementptr inbounds [1 x i32], ptr %114, i64 0, i64 %116
  %118 = load i32, ptr %117, align 4, !tbaa !8
  %119 = load ptr, ptr %6, align 8, !tbaa !3
  %120 = getelementptr inbounds nuw %struct.MvcCubeStruct, ptr %119, i32 0, i32 3
  %121 = load i32, ptr %8, align 4, !tbaa !8
  %122 = sext i32 %121 to i64
  %123 = getelementptr inbounds [1 x i32], ptr %120, i64 0, i64 %122
  %124 = load i32, ptr %123, align 4, !tbaa !8
  %125 = icmp ugt i32 %118, %124
  br i1 %125, label %126, label %127

126:                                              ; preds = %112
  store i32 1, ptr %4, align 4
  store i32 1, ptr %9, align 4
  br label %132

127:                                              ; preds = %112
  br label %128

128:                                              ; preds = %127
  %129 = load i32, ptr %8, align 4, !tbaa !8
  %130 = add nsw i32 %129, -1
  store i32 %130, ptr %8, align 4, !tbaa !8
  br label %94, !llvm.loop !10

131:                                              ; preds = %94
  store i32 0, ptr %4, align 4
  store i32 1, ptr %9, align 4
  br label %132

132:                                              ; preds = %131, %126, %111
  call void @llvm.lifetime.end.p0(i64 4, ptr %8) #2
  br label %133

133:                                              ; preds = %132, %88, %87, %76, %65, %54, %37, %36, %25
  %134 = load i32, ptr %4, align 4
  ret i32 %134
}