; Function Attrs: nofree norecurse nosync nounwind memory(argmem: read) uwtable
define range(i32 -1, 2) i32 @Mvc_CubeCompareInt(ptr noundef readonly captures(none) %0, ptr noundef readonly captures(none) %1, ptr noundef readnone captures(none) %2) local_unnamed_addr #0 {
  %4 = getelementptr inbounds nuw i8, ptr %0, i64 8
  %5 = load i32, ptr %4, align 8
  %6 = and i32 %5, 16777215
  %7 = getelementptr inbounds nuw i8, ptr %0, i64 16
  switch i32 %6, label %.preheader [
    i32 0, label %9
    i32 1, label %16
  ]

.preheader:                                       ; preds = %3
  %8 = getelementptr inbounds nuw i8, ptr %1, i64 16
  br label %34

9:                                                ; preds = %3
  %10 = load i32, ptr %7, align 8, !tbaa !3
  %11 = getelementptr inbounds nuw i8, ptr %1, i64 16
  %12 = load i32, ptr %11, align 8, !tbaa !3
  %13 = icmp ult i32 %10, %12
  br i1 %13, label %.loopexit, label %14

14:                                               ; preds = %9
  %15 = icmp ugt i32 %10, %12
  %. = zext i1 %15 to i32
  br label %.loopexit

16:                                               ; preds = %3
  %17 = getelementptr inbounds nuw i8, ptr %0, i64 20
  %18 = load i32, ptr %17, align 4, !tbaa !3
  %19 = getelementptr inbounds nuw i8, ptr %1, i64 16
  %20 = getelementptr inbounds nuw i8, ptr %1, i64 20
  %21 = load i32, ptr %20, align 4, !tbaa !3
  %22 = icmp ult i32 %18, %21
  br i1 %22, label %.loopexit, label %23

23:                                               ; preds = %16
  %24 = icmp ugt i32 %18, %21
  br i1 %24, label %.loopexit, label %25

25:                                               ; preds = %23
  %26 = load i32, ptr %7, align 8, !tbaa !3
  %27 = load i32, ptr %19, align 8, !tbaa !3
  %28 = icmp ult i32 %26, %27
  br i1 %28, label %.loopexit, label %29

29:                                               ; preds = %25
  %30 = icmp ugt i32 %26, %27
  %.35 = zext i1 %30 to i32
  br label %.loopexit

31:                                               ; preds = %41
  %32 = add nsw i32 %.036, -1
  %33 = icmp sgt i32 %.036, 0
  br i1 %33, label %34, label %.loopexit, !llvm.loop !7

34:                                               ; preds = %.preheader, %31
  %.036 = phi i32 [ %6, %.preheader ], [ %32, %31 ]
  %35 = zext nneg i32 %.036 to i64
  %36 = getelementptr inbounds nuw [1 x i32], ptr %7, i64 0, i64 %35
  %37 = load i32, ptr %36, align 4, !tbaa !3
  %38 = getelementptr inbounds nuw [1 x i32], ptr %8, i64 0, i64 %35
  %39 = load i32, ptr %38, align 4, !tbaa !3
  %40 = icmp ult i32 %37, %39
  br i1 %40, label %.loopexit, label %41

41:                                               ; preds = %34
  %42 = icmp ugt i32 %37, %39
  br i1 %42, label %.loopexit, label %31

.loopexit:                                        ; preds = %34, %41, %31, %29, %25, %23, %16, %14, %9
  %.025 = phi i32 [ -1, %9 ], [ %., %14 ], [ -1, %16 ], [ 1, %23 ], [ -1, %25 ], [ %.35, %29 ], [ 0, %31 ], [ 1, %41 ], [ -1, %34 ]
  ret i32 %.025
}